; Function Attrs: mustprogress uwtable
define hidden noundef i32 @_ZN3smt24theory_special_relations12propagate_tcERNS0_4atomE(ptr nocapture noundef nonnull readnone align 8 dereferenceable(145) %this, ptr noundef nonnull align 8 dereferenceable(36) %a) local_unnamed_addr #3 align 2 {
entry:
  %m_phase.i = getelementptr inbounds i8, ptr %a, i64 16
  %0 = load i8, ptr %m_phase.i, align 8
  %1 = and i8 %0, 1
  %tobool.i.not = icmp eq i8 %1, 0
  br i1 %tobool.i.not, label %if.end7, label %if.then

if.then:                                          ; preds = %entry
  %call2 = tail call noundef zeroext i1 @_ZN3smt24theory_special_relations4atom6enableEv(ptr noundef nonnull align 8 dereferenceable(36) %a)
  br i1 %call2, label %if.end, label %if.then3

if.then3:                                         ; preds = %if.then
  tail call void @_Z26notify_assertion_violationPKciS0_(ptr noundef nonnull @.str.14, i32 noundef 586, ptr noundef nonnull @.str.17)
  tail call void @exit(i32 noundef 114) #21
  unreachable

if.end:                                           ; preds = %if.then
  %m_relation.i = getelementptr inbounds i8, ptr %a, i64 8
  %2 = load ptr, ptr %m_relation.i, align 8
  %m_uf = getelementptr inbounds i8, ptr %2, i64 488
  %m_v1.i = getelementptr inbounds i8, ptr %a, i64 20
  %3 = load i32, ptr %m_v1.i, align 4
  %m_v2.i = getelementptr inbounds i8, ptr %a, i64 24
  %4 = load i32, ptr %m_v2.i, align 8
  tail call void @_ZN10union_findI22union_find_default_ctxS0_E5mergeEjj(ptr noundef nonnull align 8 dereferenceable(56) %m_uf, i32 noundef %3, i32 noundef %4)
  br label %if.end7

if.end7:                                          ; preds = %if.end, %entry
  ret i32 1
}